target datalayout = "e-m:e-p270:32:32-p271:32:32-p272:64:64-i64:64-i128:128-f80:128-n8:16:32:64-S128"
target triple = "x86_64-pc-linux-gnu"

%struct.t_clustid = type { i32, i32 }

@.str.1 = private unnamed_addr constant [121 x i8] c"generated/home/dtcxzyw/WorkSpace/Projects/compilers/llvm-opt-benchmark/bench/gromacs/gromacs/src/gromacs/gmxana/cmat.cpp\00", align 1
@.str.14 = private unnamed_addr constant [2 x i8] c"c\00", align 1

; Function Attrs: mustprogress uwtable
define internal void @_ZL13gmx_snew_implI9t_clustidEvPKcS2_iRPT_m(ptr noundef %0, ptr noundef %1, i32 noundef %2, ptr noundef nonnull align 8 dereferenceable(8) %3, i64 noundef %4) #0 {
  %6 = alloca ptr, align 8
  %7 = alloca ptr, align 8
  %8 = alloca i32, align 4
  %9 = alloca ptr, align 8
  %10 = alloca i64, align 8
  store ptr %0, ptr %6, align 8
  store ptr %1, ptr %7, align 8
  store i32 %2, ptr %8, align 4
  store ptr %3, ptr %9, align 8
  store i64 %4, ptr %10, align 8
  %11 = load ptr, ptr %6, align 8
  %12 = load ptr, ptr %7, align 8
  %13 = load i32, ptr %8, align 4
  %14 = load i64, ptr %10, align 8
  %15 = call noundef ptr @_Z11save_callocPKcS0_imm(ptr noundef %11, ptr noundef %12, i32 noundef %13, i64 noundef %14, i64 noundef 8)
  %16 = load ptr, ptr %9, align 8
  store ptr %15, ptr %16, align 8
  ret void
}

; Function Attrs: mustprogress uwtable
define noundef ptr @_Z11new_clustidi(i32 noundef %0) #0 {
  %2 = alloca i32, align 4
  %3 = alloca ptr, align 8
  %4 = alloca i32, align 4
  store i32 %0, ptr %2, align 4
  %5 = load i32, ptr %2, align 4
  %6 = sext i32 %5 to i64
  call void @_ZL13gmx_snew_implI9t_clustidEvPKcS2_iRPT_m(ptr noundef @.str.14, ptr noundef @.str.1, i32 noundef 195, ptr noundef nonnull align 8 dereferenceable(8) %3, i64 noundef %6)
  store i32 0, ptr %4, align 4
  br label %7

7:                                                ; preds = %24, %1
  %8 = load i32, ptr %4, align 4
  %9 = load i32, ptr %2, align 4
  %10 = icmp slt i32 %8, %9
  br i1 %10, label %11, label %27

11:                                               ; preds = %7
  %12 = load i32, ptr %4, align 4
  %13 = load ptr, ptr %3, align 8
  %14 = load i32, ptr %4, align 4
  %15 = sext i32 %14 to i64
  %16 = getelementptr inbounds %struct.t_clustid, ptr %13, i64 %15
  %17 = getelementptr inbounds %struct.t_clustid, ptr %16, i32 0, i32 0
  store i32 %12, ptr %17, align 4
  %18 = load i32, ptr %4, align 4
  %19 = load ptr, ptr %3, align 8
  %20 = load i32, ptr %4, align 4
  %21 = sext i32 %20 to i64
  %22 = getelementptr inbounds %struct.t_clustid, ptr %19, i64 %21
  %23 = getelementptr inbounds %struct.t_clustid, ptr %22, i32 0, i32 1
  store i32 %18, ptr %23, align 4
  br label %24

24:                                               ; preds = %11
  %25 = load i32, ptr %4, align 4
  %26 = add nsw i32 %25, 1
  store i32 %26, ptr %4, align 4
  br label %7, !llvm.loop !14

27:                                               ; preds = %7
  %28 = load ptr, ptr %3, align 8
  ret ptr %28
}