; Function Attrs: mustprogress uwtable
define noundef ptr @_Z11new_clustidi(i32 noundef %0) local_unnamed_addr #0 {
  %2 = sext i32 %0 to i64
  %3 = tail call noundef ptr @_Z11save_callocPKcS0_imm(ptr noundef nonnull @.str.14, ptr noundef nonnull @.str.1, i32 noundef 195, i64 noundef %2, i64 noundef 8)
  %4 = icmp sgt i32 %0, 0
  br i1 %4, label %.lr.ph.preheader, label %._crit_edge

.lr.ph.preheader:                                 ; preds = %1
  %wide.trip.count = zext nneg i32 %0 to i64
  br label %.lr.ph

.lr.ph:                                           ; preds = %.lr.ph.preheader, %.lr.ph
  %indvars.iv = phi i64 [ 0, %.lr.ph.preheader ], [ %indvars.iv.next, %.lr.ph ]
  %5 = getelementptr inbounds %struct.t_clustid, ptr %3, i64 %indvars.iv
  %6 = trunc nuw nsw i64 %indvars.iv to i32
  store i32 %6, ptr %5, align 4
  %7 = getelementptr inbounds %struct.t_clustid, ptr %3, i64 %indvars.iv, i32 1
  store i32 %6, ptr %7, align 4
  %indvars.iv.next = add nuw nsw i64 %indvars.iv, 1
  %exitcond.not = icmp eq i64 %indvars.iv.next, %wide.trip.count
  br i1 %exitcond.not, label %._crit_edge, label %.lr.ph, !llvm.loop !14

._crit_edge:                                      ; preds = %.lr.ph, %1
  ret ptr %3
}